target datalayout = "e-m:e-p270:32:32-p271:32:32-p272:64:64-i64:64-i128:128-f80:128-n8:16:32:64-S128"
target triple = "x86_64-pc-linux-gnu"

%"class.icu_77::UnicodeSet" = type <{ %"class.icu_77::UnicodeFilter", ptr, i32, i32, i8, [7 x i8], ptr, ptr, i32, [4 x i8], ptr, i32, [4 x i8], ptr, ptr, [25 x i32], [4 x i8] }>
%"class.icu_77::UnicodeFilter" = type { %"class.icu_77::UnicodeFunctor", %"class.icu_77::UnicodeMatcher" }
%"class.icu_77::UnicodeFunctor" = type { %"class.icu_77::UObject" }
%"class.icu_77::UObject" = type { ptr }
%"class.icu_77::UnicodeMatcher" = type { ptr }
%"class.icu_77::UnicodeString" = type { %"class.icu_77::Replaceable", %"union.icu_77::UnicodeString::StackBufferOrFields" }
%"class.icu_77::Replaceable" = type { %"class.icu_77::UObject" }
%"union.icu_77::UnicodeString::StackBufferOrFields" = type { %struct.anon.0, [32 x i8] }
%struct.anon.0 = type { i16, i32, i32, ptr }
%"class.icu_77::RBBIRuleScanner" = type { ptr, ptr, i32, i32, i8, i32, i32, i32, %"struct.icu_77::RBBIRuleScanner::RBBIRuleChar", %"class.icu_77::UnicodeString", ptr, [100 x i16], i32, [100 x ptr], i32, i8, i8, i8, ptr, ptr, [10 x %"class.icu_77::UnicodeSet"], i32, i32, ptr, ptr, ptr, ptr }
%"struct.icu_77::RBBIRuleScanner::RBBIRuleChar" = type <{ i32, i8, [3 x i8] }>
%"class.icu_77::RBBIRuleBuilder" = type { ptr, ptr, ptr, ptr, ptr, %"class.icu_77::UnicodeString", ptr, ptr, ptr, ptr, ptr, ptr, i8, i8, ptr, ptr, ptr, ptr }
%struct.UParseError = type { i32, i32, [16 x i16], [16 x i16] }

; Function Attrs: inlinehint mustprogress nounwind uwtable
define internal noundef signext i8 @_ZL9U_SUCCESS10UErrorCode(i32 noundef %0) #5 {
  %2 = alloca i32, align 4
  store i32 %0, ptr %2, align 4, !tbaa !53
  %3 = load i32, ptr %2, align 4, !tbaa !53
  %4 = icmp sle i32 %3, 0
  %5 = zext i1 %4 to i8
  ret i8 %5
}

; Function Attrs: mustprogress uwtable
define void @_ZN6icu_7715RBBIRuleScanner5errorE10UErrorCode(ptr noundef nonnull align 8 dereferenceable(3192) %0, i32 noundef %1) #0 align 2 {
  %3 = alloca ptr, align 8
  %4 = alloca i32, align 4
  store ptr %0, ptr %3, align 8, !tbaa !3
  store i32 %1, ptr %4, align 4, !tbaa !53
  %5 = load ptr, ptr %3, align 8
  %6 = getelementptr inbounds nuw %"class.icu_77::RBBIRuleScanner", ptr %5, i32 0, i32 1
  %7 = load ptr, ptr %6, align 8, !tbaa !12
  %8 = getelementptr inbounds nuw %"class.icu_77::RBBIRuleBuilder", ptr %7, i32 0, i32 2
  %9 = load ptr, ptr %8, align 8, !tbaa !44
  %10 = load i32, ptr %9, align 4, !tbaa !53
  %11 = call noundef signext i8 @_ZL9U_SUCCESS10UErrorCode(i32 noundef %10)
  %12 = icmp ne i8 %11, 0
  br i1 %12, label %13, label %52

13:                                               ; preds = %2
  %14 = load i32, ptr %4, align 4, !tbaa !53
  %15 = getelementptr inbounds nuw %"class.icu_77::RBBIRuleScanner", ptr %5, i32 0, i32 1
  %16 = load ptr, ptr %15, align 8, !tbaa !12
  %17 = getelementptr inbounds nuw %"class.icu_77::RBBIRuleBuilder", ptr %16, i32 0, i32 2
  %18 = load ptr, ptr %17, align 8, !tbaa !44
  store i32 %14, ptr %18, align 4, !tbaa !53
  %19 = getelementptr inbounds nuw %"class.icu_77::RBBIRuleScanner", ptr %5, i32 0, i32 1
  %20 = load ptr, ptr %19, align 8, !tbaa !12
  %21 = getelementptr inbounds nuw %"class.icu_77::RBBIRuleBuilder", ptr %20, i32 0, i32 3
  %22 = load ptr, ptr %21, align 8, !tbaa !96
  %23 = icmp ne ptr %22, null
  br i1 %23, label %24, label %51

24:                                               ; preds = %13
  %25 = getelementptr inbounds nuw %"class.icu_77::RBBIRuleScanner", ptr %5, i32 0, i32 5
  %26 = load i32, ptr %25, align 4, !tbaa !27
  %27 = getelementptr inbounds nuw %"class.icu_77::RBBIRuleScanner", ptr %5, i32 0, i32 1
  %28 = load ptr, ptr %27, align 8, !tbaa !12
  %29 = getelementptr inbounds nuw %"class.icu_77::RBBIRuleBuilder", ptr %28, i32 0, i32 3
  %30 = load ptr, ptr %29, align 8, !tbaa !96
  %31 = getelementptr inbounds nuw %struct.UParseError, ptr %30, i32 0, i32 0
  store i32 %26, ptr %31, align 4, !tbaa !97
  %32 = getelementptr inbounds nuw %"class.icu_77::RBBIRuleScanner", ptr %5, i32 0, i32 6
  %33 = load i32, ptr %32, align 8, !tbaa !28
  %34 = getelementptr inbounds nuw %"class.icu_77::RBBIRuleScanner", ptr %5, i32 0, i32 1
  %35 = load ptr, ptr %34, align 8, !tbaa !12
  %36 = getelementptr inbounds nuw %"class.icu_77::RBBIRuleBuilder", ptr %35, i32 0, i32 3
  %37 = load ptr, ptr %36, align 8, !tbaa !96
  %38 = getelementptr inbounds nuw %struct.UParseError, ptr %37, i32 0, i32 1
  store i32 %33, ptr %38, align 4, !tbaa !99
  %39 = getelementptr inbounds nuw %"class.icu_77::RBBIRuleScanner", ptr %5, i32 0, i32 1
  %40 = load ptr, ptr %39, align 8, !tbaa !12
  %41 = getelementptr inbounds nuw %"class.icu_77::RBBIRuleBuilder", ptr %40, i32 0, i32 3
  %42 = load ptr, ptr %41, align 8, !tbaa !96
  %43 = getelementptr inbounds nuw %struct.UParseError, ptr %42, i32 0, i32 2
  %44 = getelementptr inbounds [16 x i16], ptr %43, i64 0, i64 0
  store i16 0, ptr %44, align 4, !tbaa !100
  %45 = getelementptr inbounds nuw %"class.icu_77::RBBIRuleScanner", ptr %5, i32 0, i32 1
  %46 = load ptr, ptr %45, align 8, !tbaa !12
  %47 = getelementptr inbounds nuw %"class.icu_77::RBBIRuleBuilder", ptr %46, i32 0, i32 3
  %48 = load ptr, ptr %47, align 8, !tbaa !96
  %49 = getelementptr inbounds nuw %struct.UParseError, ptr %48, i32 0, i32 3
  %50 = getelementptr inbounds [16 x i16], ptr %49, i64 0, i64 0
  store i16 0, ptr %50, align 4, !tbaa !100
  br label %51

51:                                               ; preds = %24, %13
  br label %52

52:                                               ; preds = %51, %2
  ret void
}

; Function Attrs: mustprogress uwtable
define void @_ZN6icu_7715RBBIRuleScanner8nextCharERNS0_12RBBIRuleCharE(ptr noundef nonnull align 8 dereferenceable(3192) %0, ptr noundef nonnull align 4 dereferenceable(5) %1) #0 align 2 {
  %3 = alloca ptr, align 8
  %4 = alloca ptr, align 8
  %5 = alloca i32, align 4
  %6 = alloca i32, align 4
  %7 = alloca i32, align 4
  store ptr %0, ptr %3, align 8, !tbaa !3
  store ptr %1, ptr %4, align 8, !tbaa !56
  %8 = load ptr, ptr %3, align 8
  %9 = getelementptr inbounds nuw %"class.icu_77::RBBIRuleScanner", ptr %8, i32 0, i32 3
  %10 = load i32, ptr %9, align 4, !tbaa !25
  %11 = getelementptr inbounds nuw %"class.icu_77::RBBIRuleScanner", ptr %8, i32 0, i32 2
  store i32 %10, ptr %11, align 8, !tbaa !24
  %12 = call noundef i32 @_ZN6icu_7715RBBIRuleScanner10nextCharLLEv(ptr noundef nonnull align 8 dereferenceable(3192) %8)
  %13 = load ptr, ptr %4, align 8, !tbaa !56
  %14 = getelementptr inbounds nuw %"struct.icu_77::RBBIRuleScanner::RBBIRuleChar", ptr %13, i32 0, i32 0
  store i32 %12, ptr %14, align 4, !tbaa !58
  %15 = load ptr, ptr %4, align 8, !tbaa !56
  %16 = getelementptr inbounds nuw %"struct.icu_77::RBBIRuleScanner::RBBIRuleChar", ptr %15, i32 0, i32 1
  store i8 0, ptr %16, align 4, !tbaa !59
  %17 = load ptr, ptr %4, align 8, !tbaa !56
  %18 = getelementptr inbounds nuw %"struct.icu_77::RBBIRuleScanner::RBBIRuleChar", ptr %17, i32 0, i32 0
  %19 = load i32, ptr %18, align 4, !tbaa !58
  %20 = icmp eq i32 %19, 39
  br i1 %20, label %21, label %56

21:                                               ; preds = %2
  %22 = getelementptr inbounds nuw %"class.icu_77::RBBIRuleScanner", ptr %8, i32 0, i32 1
  %23 = load ptr, ptr %22, align 8, !tbaa !12
  %24 = getelementptr inbounds nuw %"class.icu_77::RBBIRuleBuilder", ptr %23, i32 0, i32 4
  %25 = load ptr, ptr %24, align 8, !tbaa !55
  %26 = getelementptr inbounds nuw %"class.icu_77::RBBIRuleScanner", ptr %8, i32 0, i32 3
  %27 = load i32, ptr %26, align 4, !tbaa !25
  %28 = call noundef i32 @_ZNK6icu_7713UnicodeString8char32AtEi(ptr noundef nonnull align 8 dereferenceable(64) %25, i32 noundef %27)
  %29 = icmp eq i32 %28, 39
  br i1 %29, label %30, label %36

30:                                               ; preds = %21
  %31 = call noundef i32 @_ZN6icu_7715RBBIRuleScanner10nextCharLLEv(ptr noundef nonnull align 8 dereferenceable(3192) %8)
  %32 = load ptr, ptr %4, align 8, !tbaa !56
  %33 = getelementptr inbounds nuw %"struct.icu_77::RBBIRuleScanner::RBBIRuleChar", ptr %32, i32 0, i32 0
  store i32 %31, ptr %33, align 4, !tbaa !58
  %34 = load ptr, ptr %4, align 8, !tbaa !56
  %35 = getelementptr inbounds nuw %"struct.icu_77::RBBIRuleScanner::RBBIRuleChar", ptr %34, i32 0, i32 1
  store i8 1, ptr %35, align 4, !tbaa !59
  br label %55

36:                                               ; preds = %21
  %37 = getelementptr inbounds nuw %"class.icu_77::RBBIRuleScanner", ptr %8, i32 0, i32 4
  %38 = load i8, ptr %37, align 8, !tbaa !26
  %39 = icmp ne i8 %38, 0
  %40 = xor i1 %39, true
  %41 = zext i1 %40 to i8
  %42 = getelementptr inbounds nuw %"class.icu_77::RBBIRuleScanner", ptr %8, i32 0, i32 4
  store i8 %41, ptr %42, align 8, !tbaa !26
  %43 = getelementptr inbounds nuw %"class.icu_77::RBBIRuleScanner", ptr %8, i32 0, i32 4
  %44 = load i8, ptr %43, align 8, !tbaa !26
  %45 = icmp ne i8 %44, 0
  br i1 %45, label %46, label %49

46:                                               ; preds = %36
  %47 = load ptr, ptr %4, align 8, !tbaa !56
  %48 = getelementptr inbounds nuw %"struct.icu_77::RBBIRuleScanner::RBBIRuleChar", ptr %47, i32 0, i32 0
  store i32 40, ptr %48, align 4, !tbaa !58
  br label %52

49:                                               ; preds = %36
  %50 = load ptr, ptr %4, align 8, !tbaa !56
  %51 = getelementptr inbounds nuw %"struct.icu_77::RBBIRuleScanner::RBBIRuleChar", ptr %50, i32 0, i32 0
  store i32 41, ptr %51, align 4, !tbaa !58
  br label %52

52:                                               ; preds = %49, %46
  %53 = load ptr, ptr %4, align 8, !tbaa !56
  %54 = getelementptr inbounds nuw %"struct.icu_77::RBBIRuleScanner::RBBIRuleChar", ptr %53, i32 0, i32 1
  store i8 0, ptr %54, align 4, !tbaa !59
  br label %164

55:                                               ; preds = %30
  br label %56

56:                                               ; preds = %55, %2
  %57 = load ptr, ptr %4, align 8, !tbaa !56
  %58 = getelementptr inbounds nuw %"struct.icu_77::RBBIRuleScanner::RBBIRuleChar", ptr %57, i32 0, i32 0
  %59 = load i32, ptr %58, align 4, !tbaa !58
  %60 = icmp eq i32 %59, -1
  br i1 %60, label %61, label %62

61:                                               ; preds = %56
  br label %164

62:                                               ; preds = %56
  %63 = getelementptr inbounds nuw %"class.icu_77::RBBIRuleScanner", ptr %8, i32 0, i32 4
  %64 = load i8, ptr %63, align 8, !tbaa !26
  %65 = icmp ne i8 %64, 0
  br i1 %65, label %66, label %69

66:                                               ; preds = %62
  %67 = load ptr, ptr %4, align 8, !tbaa !56
  %68 = getelementptr inbounds nuw %"struct.icu_77::RBBIRuleScanner::RBBIRuleChar", ptr %67, i32 0, i32 1
  store i8 1, ptr %68, align 4, !tbaa !59
  br label %164

69:                                               ; preds = %62
  %70 = load ptr, ptr %4, align 8, !tbaa !56
  %71 = getelementptr inbounds nuw %"struct.icu_77::RBBIRuleScanner::RBBIRuleChar", ptr %70, i32 0, i32 0
  %72 = load i32, ptr %71, align 4, !tbaa !58
  %73 = icmp eq i32 %72, 35
  br i1 %73, label %74, label %126

74:                                               ; preds = %69
  call void @llvm.lifetime.start.p0(i64 4, ptr %5) #12
  %75 = getelementptr inbounds nuw %"class.icu_77::RBBIRuleScanner", ptr %8, i32 0, i32 2
  %76 = load i32, ptr %75, align 8, !tbaa !24
  store i32 %76, ptr %5, align 4, !tbaa !71
  br label %77

77:                                               ; preds = %106, %74
  %78 = call noundef i32 @_ZN6icu_7715RBBIRuleScanner10nextCharLLEv(ptr noundef nonnull align 8 dereferenceable(3192) %8)
  %79 = load ptr, ptr %4, align 8, !tbaa !56
  %80 = getelementptr inbounds nuw %"struct.icu_77::RBBIRuleScanner::RBBIRuleChar", ptr %79, i32 0, i32 0
  store i32 %78, ptr %80, align 4, !tbaa !58
  %81 = load ptr, ptr %4, align 8, !tbaa !56
  %82 = getelementptr inbounds nuw %"struct.icu_77::RBBIRuleScanner::RBBIRuleChar", ptr %81, i32 0, i32 0
  %83 = load i32, ptr %82, align 4, !tbaa !58
  %84 = icmp eq i32 %83, -1
  br i1 %84, label %105, label %85

85:                                               ; preds = %77
  %86 = load ptr, ptr %4, align 8, !tbaa !56
  %87 = getelementptr inbounds nuw %"struct.icu_77::RBBIRuleScanner::RBBIRuleChar", ptr %86, i32 0, i32 0
  %88 = load i32, ptr %87, align 4, !tbaa !58
  %89 = icmp eq i32 %88, 13
  br i1 %89, label %105, label %90

90:                                               ; preds = %85
  %91 = load ptr, ptr %4, align 8, !tbaa !56
  %92 = getelementptr inbounds nuw %"struct.icu_77::RBBIRuleScanner::RBBIRuleChar", ptr %91, i32 0, i32 0
  %93 = load i32, ptr %92, align 4, !tbaa !58
  %94 = icmp eq i32 %93, 10
  br i1 %94, label %105, label %95

95:                                               ; preds = %90
  %96 = load ptr, ptr %4, align 8, !tbaa !56
  %97 = getelementptr inbounds nuw %"struct.icu_77::RBBIRuleScanner::RBBIRuleChar", ptr %96, i32 0, i32 0
  %98 = load i32, ptr %97, align 4, !tbaa !58
  %99 = icmp eq i32 %98, 133
  br i1 %99, label %105, label %100

100:                                              ; preds = %95
  %101 = load ptr, ptr %4, align 8, !tbaa !56
  %102 = getelementptr inbounds nuw %"struct.icu_77::RBBIRuleScanner::RBBIRuleChar", ptr %101, i32 0, i32 0
  %103 = load i32, ptr %102, align 4, !tbaa !58
  %104 = icmp eq i32 %103, 8232
  br i1 %104, label %105, label %106

105:                                              ; preds = %100, %95, %90, %85, %77
  br label %107

106:                                              ; preds = %100
  br label %77, !llvm.loop !117

107:                                              ; preds = %105
  call void @llvm.lifetime.start.p0(i64 4, ptr %6) #12
  %108 = load i32, ptr %5, align 4, !tbaa !71
  store i32 %108, ptr %6, align 4, !tbaa !71
  br label %109

109:                                              ; preds = %122, %107
  %110 = load i32, ptr %6, align 4, !tbaa !71
  %111 = getelementptr inbounds nuw %"class.icu_77::RBBIRuleScanner", ptr %8, i32 0, i32 3
  %112 = load i32, ptr %111, align 4, !tbaa !25
  %113 = sub nsw i32 %112, 1
  %114 = icmp slt i32 %110, %113
  br i1 %114, label %116, label %115

115:                                              ; preds = %109
  call void @llvm.lifetime.end.p0(i64 4, ptr %6) #12
  br label %125

116:                                              ; preds = %109
  %117 = getelementptr inbounds nuw %"class.icu_77::RBBIRuleScanner", ptr %8, i32 0, i32 1
  %118 = load ptr, ptr %117, align 8, !tbaa !12
  %119 = getelementptr inbounds nuw %"class.icu_77::RBBIRuleBuilder", ptr %118, i32 0, i32 5
  %120 = load i32, ptr %6, align 4, !tbaa !71
  %121 = call noundef nonnull align 8 dereferenceable(64) ptr @_ZN6icu_7713UnicodeString9setCharAtEiDs(ptr noundef nonnull align 8 dereferenceable(64) %119, i32 noundef %120, i16 noundef zeroext 32)
  br label %122

122:                                              ; preds = %116
  %123 = load i32, ptr %6, align 4, !tbaa !71
  %124 = add nsw i32 %123, 1
  store i32 %124, ptr %6, align 4, !tbaa !71
  br label %109, !llvm.loop !118

125:                                              ; preds = %115
  call void @llvm.lifetime.end.p0(i64 4, ptr %5) #12
  br label %126

126:                                              ; preds = %125, %69
  %127 = load ptr, ptr %4, align 8, !tbaa !56
  %128 = getelementptr inbounds nuw %"struct.icu_77::RBBIRuleScanner::RBBIRuleChar", ptr %127, i32 0, i32 0
  %129 = load i32, ptr %128, align 4, !tbaa !58
  %130 = icmp eq i32 %129, -1
  br i1 %130, label %131, label %132

131:                                              ; preds = %126
  br label %164

132:                                              ; preds = %126
  %133 = load ptr, ptr %4, align 8, !tbaa !56
  %134 = getelementptr inbounds nuw %"struct.icu_77::RBBIRuleScanner::RBBIRuleChar", ptr %133, i32 0, i32 0
  %135 = load i32, ptr %134, align 4, !tbaa !58
  %136 = icmp eq i32 %135, 92
  br i1 %136, label %137, label %163

137:                                              ; preds = %132
  %138 = load ptr, ptr %4, align 8, !tbaa !56
  %139 = getelementptr inbounds nuw %"struct.icu_77::RBBIRuleScanner::RBBIRuleChar", ptr %138, i32 0, i32 1
  store i8 1, ptr %139, align 4, !tbaa !59
  call void @llvm.lifetime.start.p0(i64 4, ptr %7) #12
  %140 = getelementptr inbounds nuw %"class.icu_77::RBBIRuleScanner", ptr %8, i32 0, i32 3
  %141 = load i32, ptr %140, align 4, !tbaa !25
  store i32 %141, ptr %7, align 4, !tbaa !71
  %142 = getelementptr inbounds nuw %"class.icu_77::RBBIRuleScanner", ptr %8, i32 0, i32 1
  %143 = load ptr, ptr %142, align 8, !tbaa !12
  %144 = getelementptr inbounds nuw %"class.icu_77::RBBIRuleBuilder", ptr %143, i32 0, i32 4
  %145 = load ptr, ptr %144, align 8, !tbaa !55
  %146 = getelementptr inbounds nuw %"class.icu_77::RBBIRuleScanner", ptr %8, i32 0, i32 3
  %147 = call noundef i32 @_ZNK6icu_7713UnicodeString10unescapeAtERi(ptr noundef nonnull align 8 dereferenceable(64) %145, ptr noundef nonnull align 4 dereferenceable(4) %146)
  %148 = load ptr, ptr %4, align 8, !tbaa !56
  %149 = getelementptr inbounds nuw %"struct.icu_77::RBBIRuleScanner::RBBIRuleChar", ptr %148, i32 0, i32 0
  store i32 %147, ptr %149, align 4, !tbaa !58
  %150 = getelementptr inbounds nuw %"class.icu_77::RBBIRuleScanner", ptr %8, i32 0, i32 3
  %151 = load i32, ptr %150, align 4, !tbaa !25
  %152 = load i32, ptr %7, align 4, !tbaa !71
  %153 = icmp eq i32 %151, %152
  br i1 %153, label %154, label %155

154:                                              ; preds = %137
  call void @_ZN6icu_7715RBBIRuleScanner5errorE10UErrorCode(ptr noundef nonnull align 8 dereferenceable(3192) %8, i32 noundef 66049)
  br label %155

155:                                              ; preds = %154, %137
  %156 = getelementptr inbounds nuw %"class.icu_77::RBBIRuleScanner", ptr %8, i32 0, i32 3
  %157 = load i32, ptr %156, align 4, !tbaa !25
  %158 = load i32, ptr %7, align 4, !tbaa !71
  %159 = sub nsw i32 %157, %158
  %160 = getelementptr inbounds nuw %"class.icu_77::RBBIRuleScanner", ptr %8, i32 0, i32 6
  %161 = load i32, ptr %160, align 8, !tbaa !28
  %162 = add nsw i32 %161, %159
  store i32 %162, ptr %160, align 8, !tbaa !28
  call void @llvm.lifetime.end.p0(i64 4, ptr %7) #12
  br label %163

163:                                              ; preds = %155, %132
  br label %164

164:                                              ; preds = %52, %61, %131, %163, %66
  ret void
}