; Function Attrs: mustprogress uwtable
define void @_ZN6icu_7715RBBIRuleScanner8nextCharERNS0_12RBBIRuleCharE(ptr noundef nonnull align 8 dereferenceable(3192) initializes((16, 20)) %0, ptr noundef nonnull align 4 captures(none) dereferenceable(5) initializes((0, 5)) %1) local_unnamed_addr #0 align 2 {
  %3 = getelementptr inbounds nuw i8, ptr %0, i64 20
  %4 = load i32, ptr %3, align 4, !tbaa !71
  %5 = getelementptr inbounds nuw i8, ptr %0, i64 16
  store i32 %4, ptr %5, align 8, !tbaa !73
  %6 = tail call noundef i32 @_ZN6icu_7715RBBIRuleScanner10nextCharLLEv(ptr noundef nonnull align 8 dereferenceable(3192) %0)
  store i32 %6, ptr %1, align 4, !tbaa !6
  %7 = getelementptr inbounds nuw i8, ptr %1, i64 4
  store i8 0, ptr %7, align 4, !tbaa !10
  %8 = icmp eq i32 %6, 39
  br i1 %8, label %9, label %23

9:                                                ; preds = %2
  %10 = getelementptr inbounds nuw i8, ptr %0, i64 8
  %11 = load ptr, ptr %10, align 8, !tbaa !12
  %12 = getelementptr inbounds nuw i8, ptr %11, i64 32
  %13 = load ptr, ptr %12, align 8, !tbaa !47
  %14 = load i32, ptr %3, align 4, !tbaa !71
  %15 = tail call noundef i32 @_ZNK6icu_7713UnicodeString8char32AtEi(ptr noundef nonnull align 8 dereferenceable(64) %13, i32 noundef %14)
  %16 = icmp eq i32 %15, 39
  br i1 %16, label %17, label %19

17:                                               ; preds = %9
  %18 = tail call noundef i32 @_ZN6icu_7715RBBIRuleScanner10nextCharLLEv(ptr noundef nonnull align 8 dereferenceable(3192) %0)
  store i32 %18, ptr %1, align 4, !tbaa !6
  store i8 1, ptr %7, align 4, !tbaa !10
  br label %23

19:                                               ; preds = %9
  %20 = getelementptr inbounds nuw i8, ptr %0, i64 24
  %21 = load i8, ptr %20, align 8, !tbaa !100
  %.not = icmp eq i8 %21, 0
  %22 = zext i1 %.not to i8
  store i8 %22, ptr %20, align 8, !tbaa !100
  %. = select i1 %.not, i32 40, i32 41
  store i32 %., ptr %1, align 4, !tbaa !6
  store i8 0, ptr %7, align 4, !tbaa !10
  br label %80

23:                                               ; preds = %17, %2
  %24 = phi i32 [ %18, %17 ], [ %6, %2 ]
  %25 = icmp eq i32 %24, -1
  br i1 %25, label %80, label %26

26:                                               ; preds = %23
  %27 = getelementptr inbounds nuw i8, ptr %0, i64 24
  %28 = load i8, ptr %27, align 8, !tbaa !100
  %.not30 = icmp eq i8 %28, 0
  br i1 %.not30, label %30, label %29

29:                                               ; preds = %26
  store i8 1, ptr %7, align 4, !tbaa !10
  br label %80

30:                                               ; preds = %26
  %31 = icmp eq i32 %24, 35
  br i1 %31, label %32, label %.loopexit

32:                                               ; preds = %30
  %33 = load i32, ptr %5, align 8, !tbaa !73
  br label %34

34:                                               ; preds = %34, %32
  %35 = tail call noundef i32 @_ZN6icu_7715RBBIRuleScanner10nextCharLLEv(ptr noundef nonnull align 8 dereferenceable(3192) %0)
  store i32 %35, ptr %1, align 4, !tbaa !6
  switch i32 %35, label %34 [
    i32 -1, label %36
    i32 13, label %36
    i32 10, label %36
    i32 133, label %36
    i32 8232, label %36
  ]

36:                                               ; preds = %34, %34, %34, %34, %34
  %37 = load i32, ptr %3, align 4, !tbaa !71
  %38 = add nsw i32 %37, -1
  %39 = icmp slt i32 %33, %38
  br i1 %39, label %.lr.ph, label %.loopexit

.lr.ph:                                           ; preds = %36
  %40 = getelementptr inbounds nuw i8, ptr %0, i64 8
  br label %41

41:                                               ; preds = %.lr.ph, %41
  %.031 = phi i32 [ %33, %.lr.ph ], [ %45, %41 ]
  %42 = load ptr, ptr %40, align 8, !tbaa !12
  %43 = getelementptr inbounds nuw i8, ptr %42, i64 40
  %44 = tail call noundef nonnull align 8 dereferenceable(64) ptr @_ZN6icu_7713UnicodeString9setCharAtEiDs(ptr noundef nonnull align 8 dereferenceable(64) %43, i32 noundef %.031, i16 noundef zeroext 32)
  %45 = add nsw i32 %.031, 1
  %46 = load i32, ptr %3, align 4, !tbaa !71
  %47 = add nsw i32 %46, -1
  %48 = icmp slt i32 %45, %47
  br i1 %48, label %41, label %.loopexit.loopexit, !llvm.loop !101

.loopexit.loopexit:                               ; preds = %41
  %.pre = load i32, ptr %1, align 4, !tbaa !6
  br label %.loopexit

.loopexit:                                        ; preds = %.loopexit.loopexit, %36, %30
  %49 = phi i32 [ %.pre, %.loopexit.loopexit ], [ %35, %36 ], [ %24, %30 ]
  %cond = icmp eq i32 %49, 92
  br i1 %cond, label %50, label %80

50:                                               ; preds = %.loopexit
  store i8 1, ptr %7, align 4, !tbaa !10
  %51 = load i32, ptr %3, align 4, !tbaa !71
  %52 = getelementptr inbounds nuw i8, ptr %0, i64 8
  %53 = load ptr, ptr %52, align 8, !tbaa !12
  %54 = getelementptr inbounds nuw i8, ptr %53, i64 32
  %55 = load ptr, ptr %54, align 8, !tbaa !47
  %56 = tail call noundef i32 @_ZNK6icu_7713UnicodeString10unescapeAtERi(ptr noundef nonnull align 8 dereferenceable(64) %55, ptr noundef nonnull align 4 dereferenceable(4) %3)
  store i32 %56, ptr %1, align 4, !tbaa !6
  %57 = load i32, ptr %3, align 4, !tbaa !71
  %58 = icmp eq i32 %57, %51
  br i1 %58, label %59, label %_ZN6icu_7715RBBIRuleScanner5errorE10UErrorCode.exit

59:                                               ; preds = %50
  %60 = load ptr, ptr %52, align 8, !tbaa !12
  %61 = getelementptr inbounds nuw i8, ptr %60, i64 16
  %62 = load ptr, ptr %61, align 8, !tbaa !35
  %63 = load i32, ptr %62, align 4, !tbaa !45
  %64 = icmp sgt i32 %63, 0
  br i1 %64, label %_ZN6icu_7715RBBIRuleScanner5errorE10UErrorCode.exit, label %65

65:                                               ; preds = %59
  store i32 66049, ptr %62, align 4, !tbaa !45
  %66 = getelementptr inbounds nuw i8, ptr %60, i64 24
  %67 = load ptr, ptr %66, align 8, !tbaa !58
  %.not1.i = icmp eq ptr %67, null
  br i1 %.not1.i, label %_ZN6icu_7715RBBIRuleScanner5errorE10UErrorCode.exit, label %68

68:                                               ; preds = %65
  %69 = getelementptr inbounds nuw i8, ptr %0, i64 28
  %70 = load i32, ptr %69, align 4, !tbaa !24
  store i32 %70, ptr %67, align 4, !tbaa !59
  %71 = getelementptr inbounds nuw i8, ptr %0, i64 32
  %72 = load i32, ptr %71, align 8, !tbaa !25
  %73 = getelementptr inbounds nuw i8, ptr %67, i64 4
  store i32 %72, ptr %73, align 4, !tbaa !61
  %74 = getelementptr inbounds nuw i8, ptr %67, i64 8
  store i16 0, ptr %74, align 4, !tbaa !50
  %75 = getelementptr inbounds nuw i8, ptr %67, i64 40
  store i16 0, ptr %75, align 4, !tbaa !50
  br label %_ZN6icu_7715RBBIRuleScanner5errorE10UErrorCode.exit

_ZN6icu_7715RBBIRuleScanner5errorE10UErrorCode.exit: ; preds = %68, %65, %59, %50
  %76 = sub i32 %57, %51
  %77 = getelementptr inbounds nuw i8, ptr %0, i64 32
  %78 = load i32, ptr %77, align 8, !tbaa !25
  %79 = add nsw i32 %76, %78
  store i32 %79, ptr %77, align 8, !tbaa !25
  br label %80

80:                                               ; preds = %.loopexit, %_ZN6icu_7715RBBIRuleScanner5errorE10UErrorCode.exit, %23, %29, %19
  ret void
}